; ModuleID = '39/1811.c'
source_filename = "39/1811.c"
target datalayout = "e-m:e-p270:32:32-p271:32:32-p272:64:64-i64:64-f80:128-n8:16:32:64-S128"
target triple = "x86_64-pc-linux-gnu"

%struct.student = type { [20 x i8], i32, i32, i8, i8, i32 }

@.str = private unnamed_addr constant [3 x i8] c"%d\00", align 1
@.str.1 = private unnamed_addr constant [18 x i8] c"%s %d %d %c %c %d\00", align 1
@stu = common dso_local global [100 x %struct.student] zeroinitializer, align 16
@.str.2 = private unnamed_addr constant [7 x i8] c"%s\0A%d\0A\00", align 1

; Function Attrs: noinline nounwind uwtable
define dso_local void @main() #0 {
  %1 = alloca [100 x i32], align 16
  %2 = alloca i32, align 4
  %3 = alloca i32, align 4
  %4 = alloca i32, align 4
  %5 = alloca i32, align 4
  %6 = alloca i32, align 4
  %7 = alloca i32, align 4
  %8 = alloca %struct.student, align 8
  store i32 0, i32* %5, align 4
  store i32 0, i32* %6, align 4
  store i32 0, i32* %7, align 4
  %9 = call i32 (i8*, ...) @__isoc99_scanf(i8* getelementptr inbounds ([3 x i8], [3 x i8]* @.str, i64 0, i64 0), i32* %2)
  store i32 0, i32* %3, align 4
  br label %10

10:                                               ; preds = %40, %0
  %11 = load i32, i32* %3, align 4
  %12 = load i32, i32* %2, align 4
  %13 = icmp slt i32 %11, %12
  br i1 %13, label %14, label %43

14:                                               ; preds = %10
  %15 = load i32, i32* %3, align 4
  %16 = sext i32 %15 to i64
  %17 = getelementptr inbounds [100 x %struct.student], [100 x %struct.student]* @stu, i64 0, i64 %16
  %18 = getelementptr inbounds %struct.student, %struct.student* %17, i32 0, i32 0
  %19 = load i32, i32* %3, align 4
  %20 = sext i32 %19 to i64
  %21 = getelementptr inbounds [100 x %struct.student], [100 x %struct.student]* @stu, i64 0, i64 %20
  %22 = getelementptr inbounds %struct.student, %struct.student* %21, i32 0, i32 1
  %23 = load i32, i32* %3, align 4
  %24 = sext i32 %23 to i64
  %25 = getelementptr inbounds [100 x %struct.student], [100 x %struct.student]* @stu, i64 0, i64 %24
  %26 = getelementptr inbounds %struct.student, %struct.student* %25, i32 0, i32 2
  %27 = load i32, i32* %3, align 4
  %28 = sext i32 %27 to i64
  %29 = getelementptr inbounds [100 x %struct.student], [100 x %struct.student]* @stu, i64 0, i64 %28
  %30 = getelementptr inbounds %struct.student, %struct.student* %29, i32 0, i32 3
  %31 = load i32, i32* %3, align 4
  %32 = sext i32 %31 to i64
  %33 = getelementptr inbounds [100 x %struct.student], [100 x %struct.student]* @stu, i64 0, i64 %32
  %34 = getelementptr inbounds %struct.student, %struct.student* %33, i32 0, i32 4
  %35 = load i32, i32* %3, align 4
  %36 = sext i32 %35 to i64
  %37 = getelementptr inbounds [100 x %struct.student], [100 x %struct.student]* @stu, i64 0, i64 %36
  %38 = getelementptr inbounds %struct.student, %struct.student* %37, i32 0, i32 5
  %39 = call i32 (i8*, ...) @__isoc99_scanf(i8* getelementptr inbounds ([18 x i8], [18 x i8]* @.str.1, i64 0, i64 0), [20 x i8]* %18, i32* %22, i32* %26, i8* %30, i8* %34, i32* %38)
  br label %40

40:                                               ; preds = %14
  %41 = load i32, i32* %3, align 4
  %42 = add nsw i32 %41, 1
  store i32 %42, i32* %3, align 4
  br label %10

43:                                               ; preds = %10
  store i32 0, i32* %3, align 4
  br label %44

44:                                               ; preds = %77, %43
  %45 = load i32, i32* %3, align 4
  %46 = load i32, i32* %2, align 4
  %47 = icmp slt i32 %45, %46
  br i1 %47, label %48, label %80

48:                                               ; preds = %44
  %49 = load i32, i32* %3, align 4
  %50 = sext i32 %49 to i64
  %51 = getelementptr inbounds [100 x %struct.student], [100 x %struct.student]* @stu, i64 0, i64 %50
  %52 = bitcast %struct.student* %8 to i8*
  %53 = bitcast %struct.student* %51 to i8*
  call void @llvm.memcpy.p0i8.p0i8.i64(i8* align 8 %52, i8* align 4 %53, i64 36, i1 false)
  %54 = call i32 @AWARD(%struct.student* byval(%struct.student) align 8 %8)
  %55 = load i32, i32* %3, align 4
  %56 = sext i32 %55 to i64
  %57 = getelementptr inbounds [100 x i32], [100 x i32]* %1, i64 0, i64 %56
  store i32 %54, i32* %57, align 4
  %58 = load i32, i32* %5, align 4
  %59 = load i32, i32* %3, align 4
  %60 = sext i32 %59 to i64
  %61 = getelementptr inbounds [100 x i32], [100 x i32]* %1, i64 0, i64 %60
  %62 = load i32, i32* %61, align 4
  %63 = add nsw i32 %58, %62
  store i32 %63, i32* %5, align 4
  %64 = load i32, i32* %3, align 4
  %65 = sext i32 %64 to i64
  %66 = getelementptr inbounds [100 x i32], [100 x i32]* %1, i64 0, i64 %65
  %67 = load i32, i32* %66, align 4
  %68 = load i32, i32* %6, align 4
  %69 = icmp sgt i32 %67, %68
  br i1 %69, label %70, label %76

70:                                               ; preds = %48
  %71 = load i32, i32* %3, align 4
  %72 = sext i32 %71 to i64
  %73 = getelementptr inbounds [100 x i32], [100 x i32]* %1, i64 0, i64 %72
  %74 = load i32, i32* %73, align 4
  store i32 %74, i32* %6, align 4
  %75 = load i32, i32* %3, align 4
  store i32 %75, i32* %7, align 4
  br label %76

76:                                               ; preds = %70, %48
  br label %77

77:                                               ; preds = %76
  %78 = load i32, i32* %3, align 4
  %79 = add nsw i32 %78, 1
  store i32 %79, i32* %3, align 4
  br label %44

80:                                               ; preds = %44
  %81 = load i32, i32* %7, align 4
  %82 = sext i32 %81 to i64
  %83 = getelementptr inbounds [100 x %struct.student], [100 x %struct.student]* @stu, i64 0, i64 %82
  %84 = getelementptr inbounds %struct.student, %struct.student* %83, i32 0, i32 0
  %85 = getelementptr inbounds [20 x i8], [20 x i8]* %84, i64 0, i64 0
  %86 = load i32, i32* %6, align 4
  %87 = call i32 (i8*, ...) @printf(i8* getelementptr inbounds ([7 x i8], [7 x i8]* @.str.2, i64 0, i64 0), i8* %85, i32 %86)
  %88 = load i32, i32* %5, align 4
  %89 = call i32 (i8*, ...) @printf(i8* getelementptr inbounds ([3 x i8], [3 x i8]* @.str, i64 0, i64 0), i32 %88)
  ret void
}

declare dso_local i32 @__isoc99_scanf(i8*, ...) #1

; Function Attrs: noinline nounwind uwtable
define dso_local i32 @AWARD(%struct.student* byval(%struct.student) align 8 %0) #0 {
  %2 = alloca i32, align 4
  store i32 0, i32* %2, align 4
  %3 = getelementptr inbounds %struct.student, %struct.student* %0, i32 0, i32 1
  %4 = load i32, i32* %3, align 4
  %5 = icmp sgt i32 %4, 80
  br i1 %5, label %6, label %13

6:                                                ; preds = %1
  %7 = getelementptr inbounds %struct.student, %struct.student* %0, i32 0, i32 5
  %8 = load i32, i32* %7, align 8
  %9 = icmp sgt i32 %8, 0
  br i1 %9, label %10, label %13

10:                                               ; preds = %6
  %11 = load i32, i32* %2, align 4
  %12 = add nsw i32 %11, 8000
  store i32 %12, i32* %2, align 4
  br label %13

13:                                               ; preds = %10, %6, %1
  %14 = getelementptr inbounds %struct.student, %struct.student* %0, i32 0, i32 1
  %15 = load i32, i32* %14, align 4
  %16 = icmp sgt i32 %15, 85
  br i1 %16, label %17, label %24

17:                                               ; preds = %13
  %18 = getelementptr inbounds %struct.student, %struct.student* %0, i32 0, i32 2
  %19 = load i32, i32* %18, align 8
  %20 = icmp sgt i32 %19, 80
  br i1 %20, label %21, label %24

21:                                               ; preds = %17
  %22 = load i32, i32* %2, align 4
  %23 = add nsw i32 %22, 4000
  store i32 %23, i32* %2, align 4
  br label %24

24:                                               ; preds = %21, %17, %13
  %25 = getelementptr inbounds %struct.student, %struct.student* %0, i32 0, i32 1
  %26 = load i32, i32* %25, align 4
  %27 = icmp sgt i32 %26, 90
  br i1 %27, label %28, label %31

28:                                               ; preds = %24
  %29 = load i32, i32* %2, align 4
  %30 = add nsw i32 %29, 2000
  store i32 %30, i32* %2, align 4
  br label %31

31:                                               ; preds = %28, %24
  %32 = getelementptr inbounds %struct.student, %struct.student* %0, i32 0, i32 1
  %33 = load i32, i32* %32, align 4
  %34 = icmp sgt i32 %33, 85
  br i1 %34, label %35, label %43

35:                                               ; preds = %31
  %36 = getelementptr inbounds %struct.student, %struct.student* %0, i32 0, i32 4
  %37 = load i8, i8* %36, align 1
  %38 = sext i8 %37 to i32
  %39 = icmp eq i32 %38, 89
  br i1 %39, label %40, label %43

40:                                               ; preds = %35
  %41 = load i32, i32* %2, align 4
  %42 = add nsw i32 %41, 1000
  store i32 %42, i32* %2, align 4
  br label %43

43:                                               ; preds = %40, %35, %31
  %44 = getelementptr inbounds %struct.student, %struct.student* %0, i32 0, i32 2
  %45 = load i32, i32* %44, align 8
  %46 = icmp sgt i32 %45, 80
  br i1 %46, label %47, label %55

47:                                               ; preds = %43
  %48 = getelementptr inbounds %struct.student, %struct.student* %0, i32 0, i32 3
  %49 = load i8, i8* %48, align 4
  %50 = sext i8 %49 to i32
  %51 = icmp eq i32 %50, 89
  br i1 %51, label %52, label %55

52:                                               ; preds = %47
  %53 = load i32, i32* %2, align 4
  %54 = add nsw i32 %53, 850
  store i32 %54, i32* %2, align 4
  br label %55

55:                                               ; preds = %52, %47, %43
  %56 = load i32, i32* %2, align 4
  ret i32 %56
}

; Function Attrs: argmemonly nounwind willreturn
declare void @llvm.memcpy.p0i8.p0i8.i64(i8* noalias nocapture writeonly, i8* noalias nocapture readonly, i64, i1 immarg) #2

declare dso_local i32 @printf(i8*, ...) #1


!llvm.module.flags = !{!0}
!llvm.ident = !{!1}

!0 = !{i32 1, !"wchar_size", i32 4}
!1 = !{!"clang version 10.0.0-4ubuntu1 "}
